target datalayout = "e-m:e-p270:32:32-p271:32:32-p272:64:64-i64:64-i128:128-f80:128-n8:16:32:64-S128"
target triple = "x86_64-unknown-linux-gnu"

%"class.dd::solver" = type { ptr, ptr, ptr, %"class.dd::solver::stats", %"struct.dd::solver::config", %"class.std::function", %class.ptr_vector, %class.ptr_vector, %class.ptr_vector, %class.vector.0, %class.ptr_vector, ptr, i8, i32, %class.svector, %class.svector }
%"class.dd::solver::stats" = type <{ i32, [4 x i8], double, i32, i32, i32, [4 x i8] }>
%"struct.dd::solver::config" = type { i32, i32, i32, i32, i32, i32, i8, i32, i32, i32, i32 }
%"class.std::function" = type { %"class.std::_Function_base", ptr }
%"class.std::_Function_base" = type { %"union.std::_Any_data", ptr }
%"union.std::_Any_data" = type { %"union.std::_Nocopy_types" }
%"union.std::_Nocopy_types" = type { { i64, i64 } }
%class.vector.0 = type { ptr }
%class.ptr_vector = type { %class.vector }
%class.vector = type { ptr }
%class.svector = type { %class.vector.1 }
%class.vector.1 = type { ptr }
%"class.dd::solver::equation" = type { i32, i32, %"class.dd::pdd", ptr }
%"class.dd::pdd" = type { i32, ptr }

; Function Attrs: mustprogress nounwind uwtable
define linkonce_odr noundef nonnull align 4 dereferenceable(4) ptr @_ZSt3maxIjERKT_S2_S2_(ptr noundef nonnull align 4 dereferenceable(4) %__a, ptr noundef nonnull align 4 dereferenceable(4) %__b) #5 comdat {
entry:
  %retval = alloca ptr, align 8
  %__a.addr = alloca ptr, align 8
  %__b.addr = alloca ptr, align 8
  store ptr %__a, ptr %__a.addr, align 8
  store ptr %__b, ptr %__b.addr, align 8
  %0 = load ptr, ptr %__a.addr, align 8
  %1 = load i32, ptr %0, align 4
  %2 = load ptr, ptr %__b.addr, align 8
  %3 = load i32, ptr %2, align 4
  %cmp = icmp ult i32 %1, %3
  br i1 %cmp, label %if.then, label %if.end

if.then:                                          ; preds = %entry
  %4 = load ptr, ptr %__b.addr, align 8
  store ptr %4, ptr %retval, align 8
  br label %return

if.end:                                           ; preds = %entry
  %5 = load ptr, ptr %__a.addr, align 8
  store ptr %5, ptr %retval, align 8
  br label %return

return:                                           ; preds = %if.end, %if.then
  %6 = load ptr, ptr %retval, align 8
  ret ptr %6
}

; Function Attrs: mustprogress uwtable
define linkonce_odr hidden noundef i32 @_ZNK2dd3pdd6degreeEv(ptr noundef nonnull align 8 dereferenceable(16) %this) #4 comdat align 2 {
entry:
  %this.addr = alloca ptr, align 8
  store ptr %this, ptr %this.addr, align 8
  %this1 = load ptr, ptr %this.addr, align 8
  %m = getelementptr inbounds %"class.dd::pdd", ptr %this1, i32 0, i32 1
  %0 = load ptr, ptr %m, align 8
  %call = call noundef i32 @_ZNK2dd11pdd_manager6degreeERKNS_3pddE(ptr noundef nonnull align 8 dereferenceable(952) %0, ptr noundef nonnull align 8 dereferenceable(16) %this1)
  ret i32 %call
}

; Function Attrs: mustprogress nounwind uwtable
define linkonce_odr noundef nonnull align 8 dereferenceable(8) ptr @_ZSt3maxIdERKT_S2_S2_(ptr noundef nonnull align 8 dereferenceable(8) %__a, ptr noundef nonnull align 8 dereferenceable(8) %__b) #5 comdat {
entry:
  %retval = alloca ptr, align 8
  %__a.addr = alloca ptr, align 8
  %__b.addr = alloca ptr, align 8
  store ptr %__a, ptr %__a.addr, align 8
  store ptr %__b, ptr %__b.addr, align 8
  %0 = load ptr, ptr %__a.addr, align 8
  %1 = load double, ptr %0, align 8
  %2 = load ptr, ptr %__b.addr, align 8
  %3 = load double, ptr %2, align 8
  %cmp = fcmp olt double %1, %3
  br i1 %cmp, label %if.then, label %if.end

if.then:                                          ; preds = %entry
  %4 = load ptr, ptr %__b.addr, align 8
  store ptr %4, ptr %retval, align 8
  br label %return

if.end:                                           ; preds = %entry
  %5 = load ptr, ptr %__a.addr, align 8
  store ptr %5, ptr %retval, align 8
  br label %return

return:                                           ; preds = %if.end, %if.then
  %6 = load ptr, ptr %retval, align 8
  ret ptr %6
}

; Function Attrs: mustprogress uwtable
define linkonce_odr hidden noundef double @_ZNK2dd3pdd9tree_sizeEv(ptr noundef nonnull align 8 dereferenceable(16) %this) #4 comdat align 2 {
entry:
  %this.addr = alloca ptr, align 8
  store ptr %this, ptr %this.addr, align 8
  %this1 = load ptr, ptr %this.addr, align 8
  %m = getelementptr inbounds %"class.dd::pdd", ptr %this1, i32 0, i32 1
  %0 = load ptr, ptr %m, align 8
  %call = call noundef double @_ZN2dd11pdd_manager9tree_sizeERKNS_3pddE(ptr noundef nonnull align 8 dereferenceable(952) %0, ptr noundef nonnull align 8 dereferenceable(16) %this1)
  ret double %call
}

; Function Attrs: mustprogress nounwind uwtable
define linkonce_odr hidden noundef nonnull align 8 dereferenceable(16) ptr @_ZNK2dd6solver8equation4polyEv(ptr noundef nonnull align 8 dereferenceable(32) %this) #5 comdat align 2 {
entry:
  %this.addr = alloca ptr, align 8
  store ptr %this, ptr %this.addr, align 8
  %this1 = load ptr, ptr %this.addr, align 8
  %m_poly = getelementptr inbounds %"class.dd::solver::equation", ptr %this1, i32 0, i32 2
  ret ptr %m_poly
}

; Function Attrs: mustprogress uwtable
define hidden void @_ZN2dd6solver32update_stats_max_degree_and_sizeERKNS0_8equationE(ptr noundef nonnull align 8 dereferenceable(208) %this, ptr noundef nonnull align 8 dereferenceable(32) %e) #4 align 2 {
entry:
  %this.addr = alloca ptr, align 8
  %e.addr = alloca ptr, align 8
  %ref.tmp = alloca double, align 8
  %ref.tmp7 = alloca i32, align 4
  store ptr %this, ptr %this.addr, align 8
  store ptr %e, ptr %e.addr, align 8
  %this1 = load ptr, ptr %this.addr, align 8
  %m_stats = getelementptr inbounds %"class.dd::solver", ptr %this1, i32 0, i32 3
  %m_max_expr_size = getelementptr inbounds %"class.dd::solver::stats", ptr %m_stats, i32 0, i32 2
  %0 = load ptr, ptr %e.addr, align 8
  %call = call noundef nonnull align 8 dereferenceable(16) ptr @_ZNK2dd6solver8equation4polyEv(ptr noundef nonnull align 8 dereferenceable(32) %0)
  %call2 = call noundef double @_ZNK2dd3pdd9tree_sizeEv(ptr noundef nonnull align 8 dereferenceable(16) %call)
  store double %call2, ptr %ref.tmp, align 8
  %call3 = call noundef nonnull align 8 dereferenceable(8) ptr @_ZSt3maxIdERKT_S2_S2_(ptr noundef nonnull align 8 dereferenceable(8) %m_max_expr_size, ptr noundef nonnull align 8 dereferenceable(8) %ref.tmp)
  %1 = load double, ptr %call3, align 8
  %m_stats4 = getelementptr inbounds %"class.dd::solver", ptr %this1, i32 0, i32 3
  %m_max_expr_size5 = getelementptr inbounds %"class.dd::solver::stats", ptr %m_stats4, i32 0, i32 2
  store double %1, ptr %m_max_expr_size5, align 8
  %m_stats6 = getelementptr inbounds %"class.dd::solver", ptr %this1, i32 0, i32 3
  %m_max_expr_degree = getelementptr inbounds %"class.dd::solver::stats", ptr %m_stats6, i32 0, i32 3
  %2 = load ptr, ptr %e.addr, align 8
  %call8 = call noundef nonnull align 8 dereferenceable(16) ptr @_ZNK2dd6solver8equation4polyEv(ptr noundef nonnull align 8 dereferenceable(32) %2)
  %call9 = call noundef i32 @_ZNK2dd3pdd6degreeEv(ptr noundef nonnull align 8 dereferenceable(16) %call8)
  store i32 %call9, ptr %ref.tmp7, align 4
  %call10 = call noundef nonnull align 4 dereferenceable(4) ptr @_ZSt3maxIjERKT_S2_S2_(ptr noundef nonnull align 4 dereferenceable(4) %m_max_expr_degree, ptr noundef nonnull align 4 dereferenceable(4) %ref.tmp7)
  %3 = load i32, ptr %call10, align 4
  %m_stats11 = getelementptr inbounds %"class.dd::solver", ptr %this1, i32 0, i32 3
  %m_max_expr_degree12 = getelementptr inbounds %"class.dd::solver::stats", ptr %m_stats11, i32 0, i32 3
  store i32 %3, ptr %m_max_expr_degree12, align 8
  ret void
}