; Function Attrs: mustprogress uwtable
define hidden void @_ZN2dd6solver32update_stats_max_degree_and_sizeERKNS0_8equationE(ptr nocapture noundef nonnull align 8 dereferenceable(208) %this, ptr noundef nonnull align 8 dereferenceable(32) %e) local_unnamed_addr #5 align 2 {
entry:
  %m_max_expr_size = getelementptr inbounds i8, ptr %this, i64 32
  %m_poly.i = getelementptr inbounds i8, ptr %e, i64 8
  %m.i = getelementptr inbounds i8, ptr %e, i64 16
  %0 = load ptr, ptr %m.i, align 8
  %call.i = tail call noundef double @_ZN2dd11pdd_manager9tree_sizeERKNS_3pddE(ptr noundef nonnull align 8 dereferenceable(952) %0, ptr noundef nonnull align 8 dereferenceable(16) %m_poly.i)
  %1 = load double, ptr %m_max_expr_size, align 8
  %cmp.i = fcmp olt double %1, %call.i
  %.sroa.speculated9 = select i1 %cmp.i, double %call.i, double %1
  store double %.sroa.speculated9, ptr %m_max_expr_size, align 8
  %m_max_expr_degree = getelementptr inbounds i8, ptr %this, i64 40
  %2 = load ptr, ptr %m.i, align 8
  %call.i4 = tail call noundef i32 @_ZNK2dd11pdd_manager6degreeERKNS_3pddE(ptr noundef nonnull align 8 dereferenceable(952) %2, ptr noundef nonnull align 8 dereferenceable(16) %m_poly.i)
  %3 = load i32, ptr %m_max_expr_degree, align 8
  %.sroa.speculated = tail call i32 @llvm.umax.i32(i32 %3, i32 %call.i4)
  store i32 %.sroa.speculated, ptr %m_max_expr_degree, align 8
  ret void
}